target datalayout = "e-m:e-p270:32:32-p271:32:32-p272:64:64-i64:64-i128:128-f80:128-n8:16:32:64-S128"
target triple = "x86_64-pc-linux-gnu"

@main_argc = hidden global i32 0, align 4
@main_argv = hidden global ptr null, align 8
@stderr = external global ptr, align 8
@.str.65 = private unnamed_addr constant [44 x i8] c"usage: %s test_repeated_init_exec CODE ...\0A\00", align 1
@.str.66 = private unnamed_addr constant [11 x i8] c"test_embed\00", align 1
@.str.67 = private unnamed_addr constant [18 x i8] c"--- Loop #%d ---\0A\00", align 1

; Function Attrs: nounwind uwtable
define internal i32 @test_repeated_init_exec() #0 {
  %1 = alloca i32, align 4
  %2 = alloca ptr, align 8
  %3 = alloca i32, align 4
  %4 = alloca i32, align 4
  %5 = alloca i32, align 4
  %6 = alloca i32, align 4
  %7 = load i32, ptr @main_argc, align 4, !tbaa !4
  %8 = icmp slt i32 %7, 3
  br i1 %8, label %9, label %12

9:                                                ; preds = %0
  %10 = load ptr, ptr @stderr, align 8, !tbaa !21
  %11 = call i32 (ptr, ptr, ...) @fprintf(ptr noundef %10, ptr noundef @.str.65, ptr noundef @.str.66) #11
  call void @exit(i32 noundef 1) #13
  unreachable

12:                                               ; preds = %0
  call void @llvm.lifetime.start.p0(i64 8, ptr %2) #11
  %13 = load ptr, ptr @main_argv, align 8, !tbaa !8
  %14 = getelementptr ptr, ptr %13, i64 2
  %15 = load ptr, ptr %14, align 8, !tbaa !16
  store ptr %15, ptr %2, align 8, !tbaa !16
  call void @llvm.lifetime.start.p0(i64 4, ptr %3) #11
  %16 = load i32, ptr @main_argc, align 4, !tbaa !4
  %17 = icmp sgt i32 %16, 3
  br i1 %17, label %18, label %21

18:                                               ; preds = %12
  %19 = load i32, ptr @main_argc, align 4, !tbaa !4
  %20 = sub i32 %19, 2
  br label %22

21:                                               ; preds = %12
  br label %22

22:                                               ; preds = %21, %18
  %23 = phi i32 [ %20, %18 ], [ 4, %21 ]
  store i32 %23, ptr %3, align 4, !tbaa !4
  call void @llvm.lifetime.start.p0(i64 4, ptr %4) #11
  store i32 0, ptr %4, align 4, !tbaa !4
  br label %24

24:                                               ; preds = %55, %22
  %25 = load i32, ptr %4, align 4, !tbaa !4
  %26 = load i32, ptr %3, align 4, !tbaa !4
  %27 = icmp slt i32 %25, %26
  br i1 %27, label %29, label %28

28:                                               ; preds = %24
  store i32 2, ptr %5, align 4
  br label %58

29:                                               ; preds = %24
  %30 = load ptr, ptr @stderr, align 8, !tbaa !21
  %31 = load i32, ptr %4, align 4, !tbaa !4
  %32 = add i32 %31, 1
  %33 = call i32 (ptr, ptr, ...) @fprintf(ptr noundef %30, ptr noundef @.str.67, i32 noundef %32) #11
  %34 = load ptr, ptr @stderr, align 8, !tbaa !21
  %35 = call i32 @fflush(ptr noundef %34)
  %36 = load i32, ptr @main_argc, align 4, !tbaa !4
  %37 = icmp sgt i32 %36, 3
  br i1 %37, label %38, label %45

38:                                               ; preds = %29
  %39 = load ptr, ptr @main_argv, align 8, !tbaa !8
  %40 = load i32, ptr %4, align 4, !tbaa !4
  %41 = add i32 %40, 2
  %42 = sext i32 %41 to i64
  %43 = getelementptr ptr, ptr %39, i64 %42
  %44 = load ptr, ptr %43, align 8, !tbaa !16
  store ptr %44, ptr %2, align 8, !tbaa !16
  br label %45

45:                                               ; preds = %38, %29
  call void @_testembed_Py_InitializeFromConfig()
  call void @llvm.lifetime.start.p0(i64 4, ptr %6) #11
  %46 = load ptr, ptr %2, align 8, !tbaa !16
  %47 = call i32 @PyRun_SimpleStringFlags(ptr noundef %46, ptr noundef null)
  store i32 %47, ptr %6, align 4, !tbaa !4
  call void @Py_Finalize()
  %48 = load i32, ptr %6, align 4, !tbaa !4
  %49 = icmp ne i32 %48, 0
  br i1 %49, label %50, label %51

50:                                               ; preds = %45
  store i32 1, ptr %1, align 4
  store i32 1, ptr %5, align 4
  br label %52

51:                                               ; preds = %45
  store i32 0, ptr %5, align 4
  br label %52

52:                                               ; preds = %51, %50
  call void @llvm.lifetime.end.p0(i64 4, ptr %6) #11
  %53 = load i32, ptr %5, align 4
  switch i32 %53, label %58 [
    i32 0, label %54
  ]

54:                                               ; preds = %52
  br label %55

55:                                               ; preds = %54
  %56 = load i32, ptr %4, align 4, !tbaa !4
  %57 = add i32 %56, 1
  store i32 %57, ptr %4, align 4, !tbaa !4
  br label %24, !llvm.loop !23

58:                                               ; preds = %52, %28
  call void @llvm.lifetime.end.p0(i64 4, ptr %4) #11
  %59 = load i32, ptr %5, align 4
  switch i32 %59, label %61 [
    i32 2, label %60
  ]

60:                                               ; preds = %58
  store i32 0, ptr %1, align 4
  store i32 1, ptr %5, align 4
  br label %61

61:                                               ; preds = %60, %58
  call void @llvm.lifetime.end.p0(i64 4, ptr %3) #11
  call void @llvm.lifetime.end.p0(i64 8, ptr %2) #11
  %62 = load i32, ptr %1, align 4
  ret i32 %62
}