; Function Attrs: nounwind uwtable
define internal range(i32 0, 2) i32 @test_repeated_init_exec() #0 {
  %1 = load i32, ptr @main_argc, align 4, !tbaa !4
  %2 = icmp slt i32 %1, 3
  br i1 %2, label %3, label %6

3:                                                ; preds = %0
  %4 = load ptr, ptr @stderr, align 8, !tbaa !16
  %5 = tail call i32 (ptr, ptr, ...) @fprintf(ptr noundef %4, ptr noundef nonnull @.str.65, ptr noundef nonnull @.str.66) #21
  tail call void @exit(i32 noundef 1) #22
  unreachable

6:                                                ; preds = %0
  %7 = load ptr, ptr @main_argv, align 8, !tbaa !8
  %8 = getelementptr i8, ptr %7, i64 16
  %9 = load ptr, ptr %8, align 8, !tbaa !11
  %.not = icmp eq i32 %1, 3
  %10 = add nsw i32 %1, -2
  %11 = select i1 %.not, i32 4, i32 %10
  %wide.trip.count = zext nneg i32 %11 to i64
  br label %12

12:                                               ; preds = %26, %6
  %indvars.iv = phi i64 [ %indvars.iv.next, %26 ], [ 0, %6 ]
  %.013 = phi ptr [ %.114, %26 ], [ %9, %6 ]
  %exitcond.not = icmp eq i64 %indvars.iv, %wide.trip.count
  br i1 %exitcond.not, label %28, label %13

13:                                               ; preds = %12
  %14 = load ptr, ptr @stderr, align 8, !tbaa !16
  %indvars.iv.next = add nuw nsw i64 %indvars.iv, 1
  %15 = trunc nuw i64 %indvars.iv.next to i32
  %16 = tail call i32 (ptr, ptr, ...) @fprintf(ptr noundef %14, ptr noundef nonnull @.str.67, i32 noundef %15) #21
  %17 = load ptr, ptr @stderr, align 8, !tbaa !16
  %18 = tail call i32 @fflush(ptr noundef %17)
  %19 = load i32, ptr @main_argc, align 4, !tbaa !4
  %20 = icmp sgt i32 %19, 3
  br i1 %20, label %21, label %26

21:                                               ; preds = %13
  %22 = load ptr, ptr @main_argv, align 8, !tbaa !8
  %23 = getelementptr ptr, ptr %22, i64 %indvars.iv
  %24 = getelementptr i8, ptr %23, i64 16
  %25 = load ptr, ptr %24, align 8, !tbaa !11
  br label %26

26:                                               ; preds = %21, %13
  %.114 = phi ptr [ %25, %21 ], [ %.013, %13 ]
  tail call fastcc void @_testembed_Py_InitializeFromConfig()
  %27 = tail call i32 @PyRun_SimpleStringFlags(ptr noundef %.114, ptr noundef null) #20
  tail call void @Py_Finalize() #20
  %.not16 = icmp eq i32 %27, 0
  br i1 %.not16, label %12, label %28, !llvm.loop !18

28:                                               ; preds = %12, %26
  %29 = sext i32 %11 to i64
  %.not17 = icmp slt i64 %indvars.iv, %29
  %spec.select = zext i1 %.not17 to i32
  ret i32 %spec.select
}